target datalayout = "e-m:e-p270:32:32-p271:32:32-p272:64:64-i64:64-i128:128-f80:128-n8:16:32:64-S128"
target triple = "x86_64-pc-linux-gnu"

%struct.bignum_st = type { ptr, i32, i32, i32, i32 }

@ossl_bignum_nist_p_192 = internal constant %struct.bignum_st { ptr @_nist_p_192, i32 3, i32 3, i32 0, i32 2 }, align 8
@ossl_bignum_nist_p_224 = internal constant %struct.bignum_st { ptr @_nist_p_224, i32 4, i32 4, i32 0, i32 2 }, align 8
@ossl_bignum_nist_p_256 = internal constant %struct.bignum_st { ptr @_nist_p_256, i32 4, i32 4, i32 0, i32 2 }, align 8
@ossl_bignum_nist_p_384 = internal constant %struct.bignum_st { ptr @_nist_p_384, i32 6, i32 6, i32 0, i32 2 }, align 8
@ossl_bignum_nist_p_521 = internal constant %struct.bignum_st { ptr @_nist_p_521, i32 9, i32 9, i32 0, i32 2 }, align 8

; Function Attrs: nounwind uwtable
define ptr @BN_nist_mod_func(ptr noundef %0) #0 {
  %2 = alloca ptr, align 8
  %3 = alloca ptr, align 8
  store ptr %0, ptr %3, align 8, !tbaa !3
  %4 = load ptr, ptr %3, align 8, !tbaa !3
  %5 = call i32 @BN_ucmp(ptr noundef @ossl_bignum_nist_p_192, ptr noundef %4)
  %6 = icmp eq i32 %5, 0
  br i1 %6, label %7, label %8

7:                                                ; preds = %1
  store ptr @BN_nist_mod_192, ptr %2, align 8
  br label %29

8:                                                ; preds = %1
  %9 = load ptr, ptr %3, align 8, !tbaa !3
  %10 = call i32 @BN_ucmp(ptr noundef @ossl_bignum_nist_p_224, ptr noundef %9)
  %11 = icmp eq i32 %10, 0
  br i1 %11, label %12, label %13

12:                                               ; preds = %8
  store ptr @BN_nist_mod_224, ptr %2, align 8
  br label %29

13:                                               ; preds = %8
  %14 = load ptr, ptr %3, align 8, !tbaa !3
  %15 = call i32 @BN_ucmp(ptr noundef @ossl_bignum_nist_p_256, ptr noundef %14)
  %16 = icmp eq i32 %15, 0
  br i1 %16, label %17, label %18

17:                                               ; preds = %13
  store ptr @BN_nist_mod_256, ptr %2, align 8
  br label %29

18:                                               ; preds = %13
  %19 = load ptr, ptr %3, align 8, !tbaa !3
  %20 = call i32 @BN_ucmp(ptr noundef @ossl_bignum_nist_p_384, ptr noundef %19)
  %21 = icmp eq i32 %20, 0
  br i1 %21, label %22, label %23

22:                                               ; preds = %18
  store ptr @BN_nist_mod_384, ptr %2, align 8
  br label %29

23:                                               ; preds = %18
  %24 = load ptr, ptr %3, align 8, !tbaa !3
  %25 = call i32 @BN_ucmp(ptr noundef @ossl_bignum_nist_p_521, ptr noundef %24)
  %26 = icmp eq i32 %25, 0
  br i1 %26, label %27, label %28

27:                                               ; preds = %23
  store ptr @BN_nist_mod_521, ptr %2, align 8
  br label %29

28:                                               ; preds = %23
  store ptr null, ptr %2, align 8
  br label %29

29:                                               ; preds = %28, %27, %22, %17, %12, %7
  %30 = load ptr, ptr %2, align 8
  ret ptr %30
}