; Function Attrs: nounwind uwtable
define ptr @BN_nist_mod_func(ptr noundef %0) local_unnamed_addr #1 {
  %2 = tail call i32 @BN_ucmp(ptr noundef nonnull @ossl_bignum_nist_p_192, ptr noundef %0) #7
  %3 = icmp eq i32 %2, 0
  br i1 %3, label %16, label %4

4:                                                ; preds = %1
  %5 = tail call i32 @BN_ucmp(ptr noundef nonnull @ossl_bignum_nist_p_224, ptr noundef %0) #7
  %6 = icmp eq i32 %5, 0
  br i1 %6, label %16, label %7

7:                                                ; preds = %4
  %8 = tail call i32 @BN_ucmp(ptr noundef nonnull @ossl_bignum_nist_p_256, ptr noundef %0) #7
  %9 = icmp eq i32 %8, 0
  br i1 %9, label %16, label %10

10:                                               ; preds = %7
  %11 = tail call i32 @BN_ucmp(ptr noundef nonnull @ossl_bignum_nist_p_384, ptr noundef %0) #7
  %12 = icmp eq i32 %11, 0
  br i1 %12, label %16, label %13

13:                                               ; preds = %10
  %14 = tail call i32 @BN_ucmp(ptr noundef nonnull @ossl_bignum_nist_p_521, ptr noundef %0) #7
  %15 = icmp eq i32 %14, 0
  %BN_nist_mod_521. = select i1 %15, ptr @BN_nist_mod_521, ptr null
  br label %16

16:                                               ; preds = %13, %10, %7, %4, %1
  %.0 = phi ptr [ @BN_nist_mod_192, %1 ], [ @BN_nist_mod_224, %4 ], [ @BN_nist_mod_256, %7 ], [ @BN_nist_mod_384, %10 ], [ %BN_nist_mod_521., %13 ]
  ret ptr %.0
}